(dp1
S'G463'
p2
I252
sS'G27'
p3
I149
sS'G25'
p4
I71
sS'G416'
p5
I154
sS'G414'
p6
I206
sS'G21'
p7
I207
sS'G418'
p8
I134
sS'G284'
p9
I201
sS'G341'
p10
I253
sS'G395'
p11
I194
sS'G391'
p12
I63
sS'G330'
p13
I235
sS'G16'
p14
I231
sS'G22'
p15
I223
sS'G399'
p16
I85
sS'dt'
p17
I7
sS'G374'
p18
I200
sS'wrb'
p19
I75
sS'G1'
p20
I155
sS'G96'
p21
I177
sS'G339'
p22
I250
sS'G95'
p23
I249
sS'G255'
p24
I96
sS'G134'
p25
I193
sS'G94'
p26
I152
sS'G148'
p27
I115
sS'G149'
p28
I83
sS'G252'
p29
I182
sS'G253'
p30
I224
sS'G145'
p31
I168
sS'G316'
p32
I89
sS'NNS'
p33
I70
sS'G211'
p34
I104
sS'NNP'
p35
I38
sS'G91'
p36
I128
sS'G404'
p37
I127
sS'G406'
p38
I136
sS'G401'
p39
I98
sS'G402'
p40
I91
sS'G57'
p41
I126
sS'G56'
p42
I225
sS'G55'
p43
I226
sS'G59'
p44
I78
sS'G58'
p45
I4
sS'G385'
p46
I281
sS'G378'
p47
I188
sS'prp$'
p48
I46
sS'G370'
p49
I238
sS'G291'
p50
I160
sS'MONEY'
p51
I135
sS'PERSON'
p52
I102
sS'G245'
p53
I158
sS'G293'
p54
I267
sS'G243'
p55
I209
sS'G242'
p56
I159
sS'G241'
p57
I169
sS'TYPE_INDICATOR_BASED_ON_VB'
p58
I21
sS'G490'
p59
I55
sS'G491'
p60
I108
sS'G364'
p61
I106
sS'G275'
p62
I189
sS'G494'
p63
I265
sS'G248'
p64
I56
sS'G478'
p65
I173
sS'G479'
p66
I237
sS'G472'
p67
I17
sS'G307'
p68
I150
sS'G41'
p69
I146
sS'G365'
p70
I243
sS'G444'
p71
I256
sS'G43'
p72
I266
sS'ex'
p73
I87
sS'G49'
p74
I80
sS'G92'
p75
I269
sS'G485'
p76
I272
sS'G484'
p77
I139
sS'G61'
p78
I219
sS'GOING_LOC_INDICATOR'
p79
I82
sS'G427'
p80
I244
sS'G246'
p81
I107
sS'G202'
p82
I211
sS'G36'
p83
I165
sS'G498'
p84
I251
sS'G356'
p85
I122
sS'G398'
p86
I186
sS'G272'
p87
I76
sS'G273'
p88
I199
sS'G168'
p89
I218
sS'G271'
p90
I97
sS'G276'
p91
I124
sS'LOCATION'
p92
I33
sS'rb'
p93
I18
sS'IS_NUMBER'
p94
I44
sS'G278'
p95
I57
sS'G65'
p96
I133
sS'G166'
p97
I132
sS'G164'
p98
I145
sS'G321'
p99
I156
sS'G188'
p100
I118
sS'G189'
p101
I258
sS'G469'
p102
I191
sS'G352'
p103
I227
sS'G6'
p104
I257
sS'G180'
p105
I26
sS'G462'
p106
I66
sS'G461'
p107
I276
sS'G460'
p108
I277
sS'G185'
p109
I37
sS'G465'
p110
I179
sS'G187'
p111
I28
sS'G75'
p112
I175
sS'G76'
p113
I29
sS'G71'
p114
I68
sS'G70'
p115
I59
sS'jj'
p116
I11
sS'wp'
p117
I94
sS'sym'
p118
I247
sS'G3'
p119
I125
sS'G464'
p120
I180
sS'G155'
p121
I24
sS'G319'
p122
I141
sS'G174'
p123
I65
sS'NUM_6'
p124
I86
sS'G363'
p125
I205
sS'vbg'
p126
I27
sS'G357'
p127
I228
sS'vbd'
p128
I64
sS'G301'
p129
I274
sS'TYPE_INDICATOR_VB_PLUS_WH'
p130
I114
sS'vbn'
p131
I52
sS'G349'
p132
I109
sS'vbp'
p133
I20
sS'wdt'
p134
I67
sS'TIME'
p135
I170
sS'vbz'
p136
I42
sS'G150'
p137
I30
sS'G261'
p138
I31
sS'G260'
p139
I41
sS'G263'
p140
I254
sS'G262'
p141
I110
sS'G129'
p142
I220
sS'cc'
p143
I23
sS'G190'
p144
I187
sS'jjs'
p145
I93
sS'G436'
p146
I43
sS'cd'
p147
I39
sS'NUM_8'
p148
I171
sS'NUM_9'
p149
I157
sS'G69'
p150
I192
sS'G295'
p151
I61
sS'G296'
p152
I100
sS'G63'
p153
I72
sS'NUM_2'
p154
I6
sS'NUM_3'
p155
I36
sS'NUM_4'
p156
I60
sS'NUM_5'
p157
I81
sS'DESC_PHRASE'
p158
I8
sS'NUM_7'
p159
I101
sS'pos'
p160
I143
sS"''"
p161
I255
sS'G103'
p162
I142
sS'NOUN'
p163
I1
sS'NN'
p164
I35
sS'G107'
p165
I49
sS'NA'
p166
I40
sS'NOUN_P'
p167
I13
sS'G423'
p168
I259
sS'G78'
p169
I117
sS'WH_INDUCED_TARGET'
p170
I25
sS'G210'
p171
I58
sS'ORGANIZATION'
p172
I48
sS'G154'
p173
I271
sS':'
I99
sS'G214'
p174
I184
sS'G251'
p175
I116
sS'``'
p176
I230
sS'G347'
p177
I278
sS'pdt'
p178
I239
sS'G177'
p179
I111
sS'G475'
p180
I198
sS'G283'
p181
I144
sS'G282'
p182
I162
sS'G222'
p183
I88
sS'G287'
p184
I163
sS'G18'
p185
I73
sS'-lrb-'
p186
I74
sS'G15'
p187
I185
sS'G288'
p188
I202
sS'ADJ'
p189
I9
sS'G165'
p190
I178
sS'G11'
p191
I260
sS'G10'
p192
I261
sS'FIRST_CHAR_CAPS'
p193
I5
sS'md'
p194
I32
sS'G147'
p195
I232
sS'G116'
p196
I176
sS'G140'
p197
I195
sS'G118'
p198
I92
sS'rbr'
p199
I190
sS'G259'
p200
I183
sS'G324'
p201
I50
sS'G459'
p202
I208
sS'uh'
p203
I140
sS'G323'
p204
I166
sS'G203'
p205
I268
sS'G344'
p206
I181
sS'G60'
p207
I280
sS'G328'
p208
I262
sS'G206'
p209
I234
sS'G205'
p210
I212
sS'G497'
p211
I196
sS'G434'
p212
I62
sS'vb'
p213
I10
sS'G437'
p214
I148
sS'G430'
p215
I161
sS'G431'
p216
I213
sS'G432'
p217
I214
sS'-rrb-'
p218
I77
sS'G438'
p219
I138
sS'G193'
p220
I210
sS'G178'
p221
I120
sS'IN_LOC_INDICATOR'
p222
I16
sS'G196'
p223
I147
sS'prp'
p224
I14
sS'in'
p225
I34
sS'DATE'
p226
I51
sS'null'
p227
I0
sS'nns'
p228
I15
sS'nnp'
p229
I12
sS'G237'
p230
I105
sS'nnps'
p231
I164
sS'jjr'
p232
I137
sS'nn'
p233
I3
sS'G377'
p234
I174
sS'wordAfterNUM'
p235
I45
sS'G125'
p236
I112
sS'G122'
p237
I221
sS'G123'
p238
I95
sS'.'
I130
sS'G443'
p239
I197
sS'G334'
p240
I69
sS'G332'
p241
I90
sS'G331'
p242
I121
sS'G446'
p243
I217
sS'G449'
p244
I53
sS'G448'
p245
I123
sS'G99'
p246
I236
sS'G98'
p247
I84
sS'G31'
p248
I233
sS'G30'
p249
I216
sS'G35'
p250
I245
sS'G421'
p251
I246
sS'fw'
p252
I129
sS'G39'
p253
I273
sS'G38'
p254
I153
sS'G379'
p255
I270
sS'G289'
p256
I242
sS'G428'
p257
I47
sS'VERB'
p258
I2
sS'G343'
p259
I279
sS'rp'
p260
I119
sS'G358'
p261
I229
sS'G138'
p262
I263
sS'G388'
p263
I222
sS'G389'
p264
I54
sS'G224'
p265
I22
sS'G274'
p266
I215
sS'G131'
p267
I264
sS'G132'
p268
I167
sS'G135'
p269
I151
sS'G109'
p270
I172
sS'PREDICTED_ATTR_BY_FEAT'
p271
I19
sS'G303'
p272
I113
sS'G86'
p273
I103
sS'G280'
p274
I241
sS'G80'
p275
I248
sS'G81'
p276
I79
sS'G304'
p277
I203
sS'G305'
p278
I275
sS'ls'
p279
I240
sS'G88'
p280
I131
sS'G124'
p281
I204
s.